target datalayout = "e-m:e-p270:32:32-p271:32:32-p272:64:64-i64:64-i128:128-f80:128-n8:16:32:64-S128"
target triple = "x86_64-pc-linux-gnu"

%struct.tjscalingfactor = type { i32, i32 }
%struct.tjregion = type { i32, i32, i32, i32 }
%struct._tjinstance = type { %struct.jpeg_compress_struct, %struct.jpeg_decompress_struct, %struct.my_error_mgr, i32, [200 x i8], i32, i32, i32, i32, i32, i32, i32, i32, i32, i32, i32, i32, i32, i32, i32, i32, i32, i32, i32, i32, i32, i32, i32, %struct.tjscalingfactor, %struct.tjregion, i32, i32 }
%struct.jpeg_compress_struct = type { ptr, ptr, ptr, ptr, i32, i32, ptr, i32, i32, i32, i32, double, i32, i32, i32, ptr, [4 x ptr], [4 x ptr], [4 x ptr], [16 x i8], [16 x i8], [16 x i8], i32, ptr, i32, i32, i32, i32, i32, i32, i32, i32, i32, i8, i8, i8, i16, i16, i32, i32, i32, i32, i32, i32, i32, [4 x ptr], i32, i32, i32, [10 x i32], i32, i32, i32, i32, ptr, ptr, ptr, ptr, ptr, ptr, ptr, ptr, ptr, ptr, i32 }
%struct.jpeg_decompress_struct = type { ptr, ptr, ptr, ptr, i32, i32, ptr, i32, i32, i32, i32, i32, i32, i32, double, i32, i32, i32, i32, i32, i32, i32, i32, i32, i32, i32, i32, i32, i32, i32, i32, i32, i32, ptr, i32, i32, i32, i32, i32, ptr, [4 x ptr], [4 x ptr], [4 x ptr], i32, ptr, i32, i32, [16 x i8], [16 x i8], [16 x i8], i32, i32, i8, i8, i8, i16, i16, i32, i8, i32, ptr, i32, i32, i32, i32, ptr, i32, [4 x ptr], i32, i32, i32, [10 x i32], i32, i32, i32, i32, i32, ptr, ptr, ptr, ptr, ptr, ptr, ptr, ptr, ptr, ptr, ptr }
%struct.my_error_mgr = type { %struct.jpeg_error_mgr, [1 x %struct.__jmp_buf_tag], ptr, i32, i32 }
%struct.jpeg_error_mgr = type { ptr, ptr, ptr, ptr, ptr, i32, %union.anon, i32, i64, ptr, i32, ptr, i32, i32 }
%union.anon = type { [8 x i32], [48 x i8] }
%struct.__jmp_buf_tag = type { [8 x i64], i32, %struct.__sigset_t }
%struct.__sigset_t = type { [16 x i64] }
%struct.my_progress_mgr = type { %struct.jpeg_progress_mgr, ptr }
%struct.jpeg_progress_mgr = type { ptr, i64, i64, i32, i32 }
%struct.jpeg_common_struct = type { ptr, ptr, ptr, ptr, i32, i32 }

@.str.122 = private unnamed_addr constant [46 x i8] c"Progressive JPEG image has more than %d scans\00", align 1

; Function Attrs: nounwind uwtable
define internal void @my_progress_monitor(ptr noundef %0) #0 {
  %2 = alloca ptr, align 8
  %3 = alloca ptr, align 8
  %4 = alloca ptr, align 8
  %5 = alloca i32, align 4
  store ptr %0, ptr %2, align 8
  %6 = load ptr, ptr %2, align 8
  %7 = getelementptr inbounds %struct.jpeg_common_struct, ptr %6, i32 0, i32 0
  %8 = load ptr, ptr %7, align 8
  store ptr %8, ptr %3, align 8
  %9 = load ptr, ptr %2, align 8
  %10 = getelementptr inbounds %struct.jpeg_common_struct, ptr %9, i32 0, i32 2
  %11 = load ptr, ptr %10, align 8
  store ptr %11, ptr %4, align 8
  %12 = load ptr, ptr %2, align 8
  %13 = getelementptr inbounds %struct.jpeg_common_struct, ptr %12, i32 0, i32 4
  %14 = load i32, ptr %13, align 8
  %15 = icmp ne i32 %14, 0
  br i1 %15, label %16, label %57

16:                                               ; preds = %1
  %17 = load ptr, ptr %2, align 8
  %18 = getelementptr inbounds %struct.jpeg_decompress_struct, ptr %17, i32 0, i32 35
  %19 = load i32, ptr %18, align 4
  store i32 %19, ptr %5, align 4
  %20 = load i32, ptr %5, align 4
  %21 = load ptr, ptr %4, align 8
  %22 = getelementptr inbounds %struct.my_progress_mgr, ptr %21, i32 0, i32 1
  %23 = load ptr, ptr %22, align 8
  %24 = getelementptr inbounds %struct._tjinstance, ptr %23, i32 0, i32 18
  %25 = load i32, ptr %24, align 8
  %26 = icmp sgt i32 %20, %25
  br i1 %26, label %27, label %56

27:                                               ; preds = %16
  %28 = load ptr, ptr %4, align 8
  %29 = getelementptr inbounds %struct.my_progress_mgr, ptr %28, i32 0, i32 1
  %30 = load ptr, ptr %29, align 8
  %31 = getelementptr inbounds %struct._tjinstance, ptr %30, i32 0, i32 4
  %32 = getelementptr inbounds [200 x i8], ptr %31, i64 0, i64 0
  %33 = load ptr, ptr %4, align 8
  %34 = getelementptr inbounds %struct.my_progress_mgr, ptr %33, i32 0, i32 1
  %35 = load ptr, ptr %34, align 8
  %36 = getelementptr inbounds %struct._tjinstance, ptr %35, i32 0, i32 18
  %37 = load i32, ptr %36, align 8
  %38 = call i32 (ptr, i64, ptr, ...) @snprintf(ptr noundef %32, i64 noundef 200, ptr noundef @.str.122, i32 noundef %37) #11
  %39 = call align 16 ptr @llvm.threadlocal.address.p0(ptr align 16 @errStr)
  %40 = getelementptr inbounds [200 x i8], ptr %39, i64 0, i64 0
  %41 = load ptr, ptr %4, align 8
  %42 = getelementptr inbounds %struct.my_progress_mgr, ptr %41, i32 0, i32 1
  %43 = load ptr, ptr %42, align 8
  %44 = getelementptr inbounds %struct._tjinstance, ptr %43, i32 0, i32 18
  %45 = load i32, ptr %44, align 8
  %46 = call i32 (ptr, i64, ptr, ...) @snprintf(ptr noundef %40, i64 noundef 200, ptr noundef @.str.122, i32 noundef %45) #11
  %47 = load ptr, ptr %4, align 8
  %48 = getelementptr inbounds %struct.my_progress_mgr, ptr %47, i32 0, i32 1
  %49 = load ptr, ptr %48, align 8
  %50 = getelementptr inbounds %struct._tjinstance, ptr %49, i32 0, i32 5
  store i32 1, ptr %50, align 4
  %51 = load ptr, ptr %3, align 8
  %52 = getelementptr inbounds %struct.my_error_mgr, ptr %51, i32 0, i32 3
  store i32 0, ptr %52, align 8
  %53 = load ptr, ptr %3, align 8
  %54 = getelementptr inbounds %struct.my_error_mgr, ptr %53, i32 0, i32 1
  %55 = getelementptr inbounds [1 x %struct.__jmp_buf_tag], ptr %54, i64 0, i64 0
  call void @longjmp(ptr noundef %55, i32 noundef 1) #15
  unreachable

56:                                               ; preds = %16
  br label %57

57:                                               ; preds = %56, %1
  ret void
}