; Function Attrs: nounwind uwtable
define internal void @my_progress_monitor(ptr nocapture noundef readonly %0) #0 {
  %2 = load ptr, ptr %0, align 8
  %3 = getelementptr inbounds i8, ptr %0, i64 32
  %4 = load i32, ptr %3, align 8
  %.not = icmp eq i32 %4, 0
  br i1 %.not, label %27, label %5

5:                                                ; preds = %1
  %6 = getelementptr inbounds i8, ptr %0, i64 16
  %7 = load ptr, ptr %6, align 8
  %8 = getelementptr inbounds i8, ptr %0, i64 172
  %9 = load i32, ptr %8, align 4
  %10 = getelementptr inbounds i8, ptr %7, i64 32
  %11 = load ptr, ptr %10, align 8
  %12 = getelementptr inbounds i8, ptr %11, i64 1792
  %13 = load i32, ptr %12, align 8
  %14 = icmp sgt i32 %9, %13
  br i1 %14, label %15, label %27

15:                                               ; preds = %5
  %16 = getelementptr inbounds i8, ptr %11, i64 1540
  %17 = tail call i32 (ptr, i64, ptr, ...) @snprintf(ptr noundef nonnull dereferenceable(1) %16, i64 noundef 200, ptr noundef nonnull @.str.122, i32 noundef %13) #26
  %18 = tail call align 16 ptr @llvm.threadlocal.address.p0(ptr align 16 @errStr)
  %19 = load ptr, ptr %10, align 8
  %20 = getelementptr inbounds i8, ptr %19, i64 1792
  %21 = load i32, ptr %20, align 8
  %22 = tail call i32 (ptr, i64, ptr, ...) @snprintf(ptr noundef nonnull dereferenceable(1) %18, i64 noundef 200, ptr noundef nonnull @.str.122, i32 noundef %21) #26
  %23 = load ptr, ptr %10, align 8
  %24 = getelementptr inbounds i8, ptr %23, i64 1740
  store i32 1, ptr %24, align 4
  %25 = getelementptr inbounds i8, ptr %2, i64 376
  store i32 0, ptr %25, align 8
  %26 = getelementptr inbounds i8, ptr %2, i64 168
  tail call void @longjmp(ptr noundef nonnull %26, i32 noundef 1) #29
  unreachable

27:                                               ; preds = %5, %1
  ret void
}